#include <math.h>
#include <stdio.h>
#include <stdlib.h>
#include <string.h>
#include <iostream>
using namespace std;

int de(int s,int a){      //???????a???????s?????????
	int sum=0;           //?????????????
	if(a==1)return 1;    //a?????????????????
	else if(s>a)return 0;   //a?????????????????????
	for(int i=s;i<=a;i++)  //for????a??????????
		if(a%i==0)sum=sum+de(i,a/i);  //?????????????????????
	return sum;       //??????
 }
 int main(){      //???
     int n;                //??????n????????
     cin>>n;        //??n??
     while(n>0){      //while??????????
    	 int a;         //??????a
    	 cin>>a;              //??a??
    	 cout<<de(2,a)<<endl;   //???a???????2??????????
    	 n--;                //n???
     }
     return 0;     //?????????????????
}